target datalayout = "e-m:e-p270:32:32-p271:32:32-p272:64:64-i64:64-i128:128-f80:128-n8:16:32:64-S128"
target triple = "x86_64-pc-linux-gnu"

%struct.Vec_Int_t_ = type { i32, i32, ptr }

@.str.1 = private unnamed_addr constant [27 x i8] c"Pivot = %4d. Divs = %4d.  \00", align 1
@.str.2 = private unnamed_addr constant [8 x i8] c"UNSAT.\0A\00", align 1
@.str.3 = private unnamed_addr constant [32 x i8] c"SAT with %d vars and %d cubes.\0A\00", align 1

; Function Attrs: inlinehint nounwind uwtable
define internal i32 @Abc_Lit2Var(i32 noundef %0) #2 {
  %2 = alloca i32, align 4
  store i32 %0, ptr %2, align 4, !tbaa !12
  %3 = load i32, ptr %2, align 4, !tbaa !12
  %4 = ashr i32 %3, 1
  ret i32 %4
}

; Function Attrs: inlinehint nounwind uwtable
define internal void @Vec_IntFree(ptr noundef %0) #2 {
  %2 = alloca ptr, align 8
  store ptr %0, ptr %2, align 8, !tbaa !10
  %3 = load ptr, ptr %2, align 8, !tbaa !10
  %4 = getelementptr inbounds nuw %struct.Vec_Int_t_, ptr %3, i32 0, i32 2
  %5 = load ptr, ptr %4, align 8, !tbaa !24
  %6 = icmp ne ptr %5, null
  br i1 %6, label %7, label %13

7:                                                ; preds = %1
  %8 = load ptr, ptr %2, align 8, !tbaa !10
  %9 = getelementptr inbounds nuw %struct.Vec_Int_t_, ptr %8, i32 0, i32 2
  %10 = load ptr, ptr %9, align 8, !tbaa !24
  call void @free(ptr noundef %10) #8
  %11 = load ptr, ptr %2, align 8, !tbaa !10
  %12 = getelementptr inbounds nuw %struct.Vec_Int_t_, ptr %11, i32 0, i32 2
  store ptr null, ptr %12, align 8, !tbaa !24
  br label %14

13:                                               ; preds = %1
  br label %14

14:                                               ; preds = %13, %7
  %15 = load ptr, ptr %2, align 8, !tbaa !10
  %16 = icmp ne ptr %15, null
  br i1 %16, label %17, label %19

17:                                               ; preds = %14
  %18 = load ptr, ptr %2, align 8, !tbaa !10
  call void @free(ptr noundef %18) #8
  store ptr null, ptr %2, align 8, !tbaa !10
  br label %20

19:                                               ; preds = %14
  br label %20

20:                                               ; preds = %19, %17
  ret void
}

; Function Attrs: inlinehint nounwind uwtable
define internal i32 @Vec_IntCountEntry(ptr noundef %0, i32 noundef %1) #2 {
  %3 = alloca ptr, align 8
  %4 = alloca i32, align 4
  %5 = alloca i32, align 4
  %6 = alloca i32, align 4
  store ptr %0, ptr %3, align 8, !tbaa !10
  store i32 %1, ptr %4, align 4, !tbaa !12
  call void @llvm.lifetime.start.p0(i64 4, ptr %5) #8
  call void @llvm.lifetime.start.p0(i64 4, ptr %6) #8
  store i32 0, ptr %6, align 4, !tbaa !12
  store i32 0, ptr %5, align 4, !tbaa !12
  br label %7

7:                                                ; preds = %26, %2
  %8 = load i32, ptr %5, align 4, !tbaa !12
  %9 = load ptr, ptr %3, align 8, !tbaa !10
  %10 = getelementptr inbounds nuw %struct.Vec_Int_t_, ptr %9, i32 0, i32 1
  %11 = load i32, ptr %10, align 4, !tbaa !21
  %12 = icmp slt i32 %8, %11
  br i1 %12, label %13, label %29

13:                                               ; preds = %7
  %14 = load ptr, ptr %3, align 8, !tbaa !10
  %15 = getelementptr inbounds nuw %struct.Vec_Int_t_, ptr %14, i32 0, i32 2
  %16 = load ptr, ptr %15, align 8, !tbaa !24
  %17 = load i32, ptr %5, align 4, !tbaa !12
  %18 = sext i32 %17 to i64
  %19 = getelementptr inbounds i32, ptr %16, i64 %18
  %20 = load i32, ptr %19, align 4, !tbaa !12
  %21 = load i32, ptr %4, align 4, !tbaa !12
  %22 = icmp eq i32 %20, %21
  %23 = zext i1 %22 to i32
  %24 = load i32, ptr %6, align 4, !tbaa !12
  %25 = add nsw i32 %24, %23
  store i32 %25, ptr %6, align 4, !tbaa !12
  br label %26

26:                                               ; preds = %13
  %27 = load i32, ptr %5, align 4, !tbaa !12
  %28 = add nsw i32 %27, 1
  store i32 %28, ptr %5, align 4, !tbaa !12
  br label %7, !llvm.loop !72

29:                                               ; preds = %7
  %30 = load i32, ptr %6, align 4, !tbaa !12
  call void @llvm.lifetime.end.p0(i64 4, ptr %6) #8
  call void @llvm.lifetime.end.p0(i64 4, ptr %5) #8
  ret i32 %30
}

; Function Attrs: nounwind uwtable
define i64 @Sbd_ManSolverSupp(ptr noundef %0, ptr noundef %1, ptr noundef %2) #0 {
  %4 = alloca ptr, align 8
  %5 = alloca ptr, align 8
  %6 = alloca ptr, align 8
  %7 = alloca i64, align 8
  %8 = alloca i32, align 4
  %9 = alloca i32, align 4
  %10 = alloca i32, align 4
  store ptr %0, ptr %4, align 8, !tbaa !10
  store ptr %1, ptr %5, align 8, !tbaa !45
  store ptr %2, ptr %6, align 8, !tbaa !45
  call void @llvm.lifetime.start.p0(i64 8, ptr %7) #8
  store i64 0, ptr %7, align 8, !tbaa !42
  call void @llvm.lifetime.start.p0(i64 4, ptr %8) #8
  call void @llvm.lifetime.start.p0(i64 4, ptr %9) #8
  call void @llvm.lifetime.start.p0(i64 4, ptr %10) #8
  store i32 0, ptr %10, align 4, !tbaa !12
  store i32 0, ptr %8, align 4, !tbaa !12
  br label %11

11:                                               ; preds = %49, %3
  %12 = load i32, ptr %8, align 4, !tbaa !12
  %13 = load ptr, ptr %4, align 8, !tbaa !10
  %14 = call i32 @Vec_IntSize(ptr noundef %13)
  %15 = icmp slt i32 %12, %14
  br i1 %15, label %16, label %20

16:                                               ; preds = %11
  %17 = load ptr, ptr %4, align 8, !tbaa !10
  %18 = load i32, ptr %8, align 4, !tbaa !12
  %19 = call i32 @Vec_IntEntry(ptr noundef %17, i32 noundef %18)
  store i32 %19, ptr %9, align 4, !tbaa !12
  br label %20

20:                                               ; preds = %16, %11
  %21 = phi i1 [ false, %11 ], [ true, %16 ]
  br i1 %21, label %22, label %52

22:                                               ; preds = %20
  %23 = load i32, ptr %9, align 4, !tbaa !12
  %24 = icmp eq i32 %23, -1
  br i1 %24, label %25, label %26

25:                                               ; preds = %22
  br label %49

26:                                               ; preds = %22
  %27 = load i64, ptr %7, align 8, !tbaa !42
  %28 = load i32, ptr %9, align 4, !tbaa !12
  %29 = call i32 @Abc_Lit2Var(i32 noundef %28)
  %30 = zext i32 %29 to i64
  %31 = lshr i64 %27, %30
  %32 = and i64 %31, 1
  %33 = icmp ne i64 %32, 0
  br i1 %33, label %34, label %35

34:                                               ; preds = %26
  br label %49

35:                                               ; preds = %26
  %36 = load i32, ptr %10, align 4, !tbaa !12
  %37 = add nsw i32 %36, 1
  store i32 %37, ptr %10, align 4, !tbaa !12
  %38 = load ptr, ptr %5, align 8, !tbaa !45
  %39 = load i32, ptr %9, align 4, !tbaa !12
  %40 = call i32 @Abc_Lit2Var(i32 noundef %39)
  %41 = sext i32 %40 to i64
  %42 = getelementptr inbounds i32, ptr %38, i64 %41
  store i32 %36, ptr %42, align 4, !tbaa !12
  %43 = load i32, ptr %9, align 4, !tbaa !12
  %44 = call i32 @Abc_Lit2Var(i32 noundef %43)
  %45 = zext i32 %44 to i64
  %46 = shl i64 1, %45
  %47 = load i64, ptr %7, align 8, !tbaa !42
  %48 = or i64 %47, %46
  store i64 %48, ptr %7, align 8, !tbaa !42
  br label %49

49:                                               ; preds = %35, %34, %25
  %50 = load i32, ptr %8, align 4, !tbaa !12
  %51 = add nsw i32 %50, 1
  store i32 %51, ptr %8, align 4, !tbaa !12
  br label %11, !llvm.loop !67

52:                                               ; preds = %20
  %53 = load i32, ptr %10, align 4, !tbaa !12
  %54 = load ptr, ptr %6, align 8, !tbaa !45
  store i32 %53, ptr %54, align 4, !tbaa !12
  %55 = load i64, ptr %7, align 8, !tbaa !42
  call void @llvm.lifetime.end.p0(i64 4, ptr %10) #8
  call void @llvm.lifetime.end.p0(i64 4, ptr %9) #8
  call void @llvm.lifetime.end.p0(i64 4, ptr %8) #8
  call void @llvm.lifetime.end.p0(i64 8, ptr %7) #8
  ret i64 %55
}

; Function Attrs: inlinehint nounwind uwtable
define internal i32 @Vec_IntSize(ptr noundef %0) #2 {
  %2 = alloca ptr, align 8
  store ptr %0, ptr %2, align 8, !tbaa !10
  %3 = load ptr, ptr %2, align 8, !tbaa !10
  %4 = getelementptr inbounds nuw %struct.Vec_Int_t_, ptr %3, i32 0, i32 1
  %5 = load i32, ptr %4, align 4, !tbaa !21
  ret i32 %5
}

; Function Attrs: inlinehint nounwind uwtable
define internal i32 @Vec_IntEntry(ptr noundef %0, i32 noundef %1) #2 {
  %3 = alloca ptr, align 8
  %4 = alloca i32, align 4
  store ptr %0, ptr %3, align 8, !tbaa !10
  store i32 %1, ptr %4, align 4, !tbaa !12
  %5 = load ptr, ptr %3, align 8, !tbaa !10
  %6 = getelementptr inbounds nuw %struct.Vec_Int_t_, ptr %5, i32 0, i32 2
  %7 = load ptr, ptr %6, align 8, !tbaa !24
  %8 = load i32, ptr %4, align 4, !tbaa !12
  %9 = sext i32 %8 to i64
  %10 = getelementptr inbounds i32, ptr %7, i64 %9
  %11 = load i32, ptr %10, align 4, !tbaa !12
  ret i32 %11
}

; Function Attrs: inlinehint nounwind uwtable
define internal ptr @Vec_IntAlloc(i32 noundef %0) #2 {
  %2 = alloca i32, align 4
  %3 = alloca ptr, align 8
  store i32 %0, ptr %2, align 4, !tbaa !12
  call void @llvm.lifetime.start.p0(i64 8, ptr %3) #8
  %4 = call noalias ptr @malloc(i64 noundef 16) #9
  store ptr %4, ptr %3, align 8, !tbaa !10
  %5 = load i32, ptr %2, align 4, !tbaa !12
  %6 = icmp sgt i32 %5, 0
  br i1 %6, label %7, label %11

7:                                                ; preds = %1
  %8 = load i32, ptr %2, align 4, !tbaa !12
  %9 = icmp slt i32 %8, 16
  br i1 %9, label %10, label %11

10:                                               ; preds = %7
  store i32 16, ptr %2, align 4, !tbaa !12
  br label %11

11:                                               ; preds = %10, %7, %1
  %12 = load ptr, ptr %3, align 8, !tbaa !10
  %13 = getelementptr inbounds nuw %struct.Vec_Int_t_, ptr %12, i32 0, i32 1
  store i32 0, ptr %13, align 4, !tbaa !21
  %14 = load i32, ptr %2, align 4, !tbaa !12
  %15 = load ptr, ptr %3, align 8, !tbaa !10
  %16 = getelementptr inbounds nuw %struct.Vec_Int_t_, ptr %15, i32 0, i32 0
  store i32 %14, ptr %16, align 8, !tbaa !41
  %17 = load ptr, ptr %3, align 8, !tbaa !10
  %18 = getelementptr inbounds nuw %struct.Vec_Int_t_, ptr %17, i32 0, i32 0
  %19 = load i32, ptr %18, align 8, !tbaa !41
  %20 = icmp ne i32 %19, 0
  br i1 %20, label %21, label %28

21:                                               ; preds = %11
  %22 = load ptr, ptr %3, align 8, !tbaa !10
  %23 = getelementptr inbounds nuw %struct.Vec_Int_t_, ptr %22, i32 0, i32 0
  %24 = load i32, ptr %23, align 8, !tbaa !41
  %25 = sext i32 %24 to i64
  %26 = mul i64 4, %25
  %27 = call noalias ptr @malloc(i64 noundef %26) #9
  br label %29

28:                                               ; preds = %11
  br label %29

29:                                               ; preds = %28, %21
  %30 = phi ptr [ %27, %21 ], [ null, %28 ]
  %31 = load ptr, ptr %3, align 8, !tbaa !10
  %32 = getelementptr inbounds nuw %struct.Vec_Int_t_, ptr %31, i32 0, i32 2
  store ptr %30, ptr %32, align 8, !tbaa !24
  %33 = load ptr, ptr %3, align 8, !tbaa !10
  call void @llvm.lifetime.end.p0(i64 8, ptr %3) #8
  ret ptr %33
}

; Function Attrs: nounwind uwtable
define void @Sbd_ManSolveSelect(ptr noundef %0, ptr noundef %1, i32 noundef %2, ptr noundef %3, ptr noundef %4, ptr noundef %5, ptr noundef %6, ptr noundef %7, ptr noundef %8) #0 {
  %10 = alloca ptr, align 8
  %11 = alloca ptr, align 8
  %12 = alloca i32, align 4
  %13 = alloca ptr, align 8
  %14 = alloca ptr, align 8
  %15 = alloca ptr, align 8
  %16 = alloca ptr, align 8
  %17 = alloca ptr, align 8
  %18 = alloca ptr, align 8
  %19 = alloca ptr, align 8
  %20 = alloca ptr, align 8
  %21 = alloca ptr, align 8
  %22 = alloca i32, align 4
  %23 = alloca i32, align 4
  %24 = alloca i32, align 4
  %25 = alloca i32, align 4
  %26 = alloca [64 x i32], align 16
  %27 = alloca i64, align 8
  store ptr %0, ptr %10, align 8, !tbaa !8
  store ptr %1, ptr %11, align 8, !tbaa !10
  store i32 %2, ptr %12, align 4, !tbaa !12
  store ptr %3, ptr %13, align 8, !tbaa !10
  store ptr %4, ptr %14, align 8, !tbaa !10
  store ptr %5, ptr %15, align 8, !tbaa !10
  store ptr %6, ptr %16, align 8, !tbaa !10
  store ptr %7, ptr %17, align 8, !tbaa !10
  store ptr %8, ptr %18, align 8, !tbaa !10
  call void @llvm.lifetime.start.p0(i64 8, ptr %19) #8
  %28 = call ptr @Vec_IntAlloc(i32 noundef 100)
  store ptr %28, ptr %19, align 8, !tbaa !10
  call void @llvm.lifetime.start.p0(i64 8, ptr %20) #8
  %29 = call ptr @Vec_IntAlloc(i32 noundef 100)
  store ptr %29, ptr %20, align 8, !tbaa !10
  call void @llvm.lifetime.start.p0(i64 8, ptr %21) #8
  %30 = load ptr, ptr %10, align 8, !tbaa !8
  %31 = load ptr, ptr %11, align 8, !tbaa !10
  %32 = load i32, ptr %12, align 4, !tbaa !12
  %33 = load ptr, ptr %15, align 8, !tbaa !10
  %34 = load ptr, ptr %16, align 8, !tbaa !10
  %35 = load ptr, ptr %17, align 8, !tbaa !10
  %36 = load ptr, ptr %18, align 8, !tbaa !10
  %37 = call ptr @Sbd_ManSatSolver(ptr noundef null, ptr noundef %30, ptr noundef %31, i32 noundef %32, ptr noundef %33, ptr noundef %34, ptr noundef %35, ptr noundef %36, i32 noundef 0)
  store ptr %37, ptr %21, align 8, !tbaa !3
  call void @llvm.lifetime.start.p0(i64 4, ptr %22) #8
  %38 = load ptr, ptr %16, align 8, !tbaa !10
  %39 = load i32, ptr %12, align 4, !tbaa !12
  %40 = call i32 @Vec_IntEntry(ptr noundef %38, i32 noundef %39)
  store i32 %40, ptr %22, align 4, !tbaa !12
  call void @llvm.lifetime.start.p0(i64 4, ptr %23) #8
  %41 = load ptr, ptr %15, align 8, !tbaa !10
  %42 = call i32 @Vec_IntSize(ptr noundef %41)
  %43 = load ptr, ptr %17, align 8, !tbaa !10
  %44 = call i32 @Vec_IntSize(ptr noundef %43)
  %45 = add nsw i32 %42, %44
  %46 = load ptr, ptr %18, align 8, !tbaa !10
  %47 = call i32 @Vec_IntSize(ptr noundef %46)
  %48 = add nsw i32 %45, %47
  store i32 %48, ptr %23, align 4, !tbaa !12
  call void @llvm.lifetime.start.p0(i64 4, ptr %24) #8
  %49 = load ptr, ptr %21, align 8, !tbaa !3
  %50 = load i32, ptr %22, align 4, !tbaa !12
  %51 = load i32, ptr %23, align 4, !tbaa !12
  %52 = load ptr, ptr %13, align 8, !tbaa !10
  %53 = load ptr, ptr %14, align 8, !tbaa !10
  %54 = load ptr, ptr %20, align 8, !tbaa !10
  %55 = load ptr, ptr %19, align 8, !tbaa !10
  %56 = call i32 @Sbd_ManSolve2(ptr noundef %49, i32 noundef %50, i32 noundef %51, ptr noundef %52, ptr noundef %53, ptr noundef %54, ptr noundef %55)
  store i32 %56, ptr %24, align 4, !tbaa !12
  %57 = load i32, ptr %12, align 4, !tbaa !12
  %58 = load ptr, ptr %13, align 8, !tbaa !10
  %59 = call i32 @Vec_IntSize(ptr noundef %58)
  %60 = call i32 (ptr, ...) @printf(ptr noundef @.str.1, i32 noundef %57, i32 noundef %59)
  %61 = load i32, ptr %24, align 4, !tbaa !12
  %62 = icmp eq i32 %61, 0
  br i1 %62, label %63, label %65

63:                                               ; preds = %9
  %64 = call i32 (ptr, ...) @printf(ptr noundef @.str.2)
  br label %73

65:                                               ; preds = %9
  call void @llvm.lifetime.start.p0(i64 4, ptr %25) #8
  call void @llvm.lifetime.start.p0(i64 256, ptr %26) #8
  call void @llvm.lifetime.start.p0(i64 8, ptr %27) #8
  %66 = load ptr, ptr %19, align 8, !tbaa !10
  %67 = getelementptr inbounds [64 x i32], ptr %26, i64 0, i64 0
  %68 = call i64 @Sbd_ManSolverSupp(ptr noundef %66, ptr noundef %67, ptr noundef %25)
  store i64 %68, ptr %27, align 8, !tbaa !42
  %69 = load i32, ptr %25, align 4, !tbaa !12
  %70 = load ptr, ptr %19, align 8, !tbaa !10
  %71 = call i32 @Vec_IntCountEntry(ptr noundef %70, i32 noundef -1)
  %72 = call i32 (ptr, ...) @printf(ptr noundef @.str.3, i32 noundef %69, i32 noundef %71)
  store i64 0, ptr %27, align 8, !tbaa !42
  call void @llvm.lifetime.end.p0(i64 8, ptr %27) #8
  call void @llvm.lifetime.end.p0(i64 256, ptr %26) #8
  call void @llvm.lifetime.end.p0(i64 4, ptr %25) #8
  br label %73

73:                                               ; preds = %65, %63
  %74 = load ptr, ptr %20, align 8, !tbaa !10
  call void @Vec_IntFree(ptr noundef %74)
  %75 = load ptr, ptr %19, align 8, !tbaa !10
  call void @Vec_IntFree(ptr noundef %75)
  %76 = load ptr, ptr %21, align 8, !tbaa !3
  call void @sat_solver_delete(ptr noundef %76)
  call void @llvm.lifetime.end.p0(i64 4, ptr %24) #8
  call void @llvm.lifetime.end.p0(i64 4, ptr %23) #8
  call void @llvm.lifetime.end.p0(i64 4, ptr %22) #8
  call void @llvm.lifetime.end.p0(i64 8, ptr %21) #8
  call void @llvm.lifetime.end.p0(i64 8, ptr %20) #8
  call void @llvm.lifetime.end.p0(i64 8, ptr %19) #8
  ret void
}