; Function Attrs: nounwind uwtable
define void @Sbd_ManSolveSelect(ptr noundef readonly captures(none) %0, ptr noundef readonly captures(none) %1, i32 noundef %2, ptr noundef readonly captures(none) %3, ptr noundef readnone captures(none) %4, ptr noundef readonly captures(none) %5, ptr noundef readonly captures(none) %6, ptr noundef readonly captures(none) %7, ptr noundef readonly captures(none) %8) local_unnamed_addr #0 {
  %10 = tail call noalias dereferenceable_or_null(16) ptr @malloc(i64 noundef 16) #13
  %11 = getelementptr inbounds nuw i8, ptr %10, i64 4
  store i32 0, ptr %11, align 4, !tbaa !7
  store i32 100, ptr %10, align 8, !tbaa !34
  %12 = tail call noalias dereferenceable_or_null(400) ptr @malloc(i64 noundef 400) #13
  %13 = getelementptr inbounds nuw i8, ptr %10, i64 8
  store ptr %12, ptr %13, align 8, !tbaa !11
  %14 = tail call noalias dereferenceable_or_null(16) ptr @malloc(i64 noundef 16) #13
  %15 = getelementptr inbounds nuw i8, ptr %14, i64 4
  store i32 0, ptr %15, align 4, !tbaa !7
  store i32 100, ptr %14, align 8, !tbaa !34
  %16 = tail call noalias dereferenceable_or_null(400) ptr @malloc(i64 noundef 400) #13
  %17 = getelementptr inbounds nuw i8, ptr %14, i64 8
  store ptr %16, ptr %17, align 8, !tbaa !11
  %18 = tail call ptr @Sbd_ManSatSolver(ptr noundef null, ptr noundef %0, ptr noundef %1, i32 noundef %2, ptr noundef %5, ptr noundef %6, ptr noundef %7, ptr noundef %8, i32 noundef 0)
  %19 = getelementptr i8, ptr %6, i64 8
  %.val29 = load ptr, ptr %19, align 8, !tbaa !11
  %20 = sext i32 %2 to i64
  %21 = getelementptr inbounds i32, ptr %.val29, i64 %20
  %22 = load i32, ptr %21, align 4, !tbaa !3
  %23 = getelementptr i8, ptr %5, i64 4
  %.val28 = load i32, ptr %23, align 4, !tbaa !7
  %24 = getelementptr i8, ptr %7, i64 4
  %.val27 = load i32, ptr %24, align 4, !tbaa !7
  %25 = add nsw i32 %.val27, %.val28
  %26 = getelementptr i8, ptr %8, i64 4
  %.val26 = load i32, ptr %26, align 4, !tbaa !7
  %27 = add nsw i32 %25, %.val26
  %28 = tail call i32 @Sbd_ManSolve2(ptr noundef %18, i32 noundef %22, i32 noundef %27, ptr noundef %3, ptr poison, ptr noundef nonnull %14, ptr noundef nonnull %10)
  %29 = getelementptr i8, ptr %3, i64 4
  %.val = load i32, ptr %29, align 4, !tbaa !7
  %30 = tail call i32 (ptr, ...) @printf(ptr noundef nonnull dereferenceable(1) @.str.1, i32 noundef %2, i32 noundef %.val)
  %31 = icmp eq i32 %28, 0
  br i1 %31, label %32, label %33

32:                                               ; preds = %9
  %puts = tail call i32 @puts(ptr nonnull dereferenceable(1) @str)
  br label %55

33:                                               ; preds = %9
  %.val20.i = load i32, ptr %11, align 4, !tbaa !7
  %34 = icmp sgt i32 %.val20.i, 0
  br i1 %34, label %.lr.ph.i, label %Vec_IntCountEntry.exit

.lr.ph.i:                                         ; preds = %33
  %.val19.i = load ptr, ptr %13, align 8, !tbaa !11
  %35 = zext nneg i32 %.val20.i to i64
  br label %36

36:                                               ; preds = %48, %.lr.ph.i
  %indvars.iv.i = phi i64 [ 0, %.lr.ph.i ], [ %indvars.iv.next.i, %48 ]
  %.023.i = phi i32 [ 0, %.lr.ph.i ], [ %.1.i, %48 ]
  %.01522.i = phi i64 [ 0, %.lr.ph.i ], [ %.116.i, %48 ]
  %37 = getelementptr inbounds nuw i32, ptr %.val19.i, i64 %indvars.iv.i
  %38 = load i32, ptr %37, align 4, !tbaa !3
  %39 = icmp eq i32 %38, -1
  br i1 %39, label %48, label %40

40:                                               ; preds = %36
  %41 = ashr i32 %38, 1
  %42 = zext nneg i32 %41 to i64
  %43 = shl nuw i64 1, %42
  %44 = and i64 %43, %.01522.i
  %.not.i = icmp eq i64 %44, 0
  br i1 %.not.i, label %45, label %48

45:                                               ; preds = %40
  %46 = add nsw i32 %.023.i, 1
  %47 = or i64 %43, %.01522.i
  br label %48

48:                                               ; preds = %45, %40, %36
  %.116.i = phi i64 [ %.01522.i, %36 ], [ %.01522.i, %40 ], [ %47, %45 ]
  %.1.i = phi i32 [ %.023.i, %36 ], [ %.023.i, %40 ], [ %46, %45 ]
  %indvars.iv.next.i = add nuw nsw i64 %indvars.iv.i, 1
  %exitcond.not = icmp eq i64 %indvars.iv.next.i, %35
  br i1 %exitcond.not, label %.lr.ph.i31, label %36, !llvm.loop !59

.lr.ph.i31:                                       ; preds = %48, %.lr.ph.i31
  %indvars.iv.i32 = phi i64 [ %indvars.iv.next.i33, %.lr.ph.i31 ], [ 0, %48 ]
  %.09.i = phi i32 [ %53, %.lr.ph.i31 ], [ 0, %48 ]
  %49 = getelementptr inbounds nuw i32, ptr %.val19.i, i64 %indvars.iv.i32
  %50 = load i32, ptr %49, align 4, !tbaa !3
  %51 = icmp eq i32 %50, -1
  %52 = zext i1 %51 to i32
  %53 = add nuw nsw i32 %.09.i, %52
  %indvars.iv.next.i33 = add nuw nsw i64 %indvars.iv.i32, 1
  %exitcond.not.i = icmp eq i64 %indvars.iv.next.i33, %35
  br i1 %exitcond.not.i, label %Vec_IntCountEntry.exit, label %.lr.ph.i31, !llvm.loop !62

Vec_IntCountEntry.exit:                           ; preds = %.lr.ph.i31, %33
  %.0.lcssa.i38 = phi i32 [ 0, %33 ], [ %.1.i, %.lr.ph.i31 ]
  %.0.lcssa.i30 = phi i32 [ 0, %33 ], [ %53, %.lr.ph.i31 ]
  %54 = tail call i32 (ptr, ...) @printf(ptr noundef nonnull dereferenceable(1) @.str.3, i32 noundef %.0.lcssa.i38, i32 noundef %.0.lcssa.i30)
  br label %55

55:                                               ; preds = %Vec_IntCountEntry.exit, %32
  %56 = load ptr, ptr %17, align 8, !tbaa !11
  %.not.i34 = icmp eq ptr %56, null
  br i1 %.not.i34, label %Vec_IntFree.exit, label %57

57:                                               ; preds = %55
  tail call void @free(ptr noundef nonnull %56) #12
  br label %Vec_IntFree.exit

Vec_IntFree.exit:                                 ; preds = %55, %57
  tail call void @free(ptr noundef nonnull %14) #12
  %58 = load ptr, ptr %13, align 8, !tbaa !11
  %.not.i35 = icmp eq ptr %58, null
  br i1 %.not.i35, label %Vec_IntFree.exit36, label %59

59:                                               ; preds = %Vec_IntFree.exit
  tail call void @free(ptr noundef nonnull %58) #12
  br label %Vec_IntFree.exit36

Vec_IntFree.exit36:                               ; preds = %Vec_IntFree.exit, %59
  tail call void @free(ptr noundef nonnull %10) #12
  tail call void @sat_solver_delete(ptr noundef %18) #12
  ret void
}